target datalayout = "e-m:e-p270:32:32-p271:32:32-p272:64:64-i64:64-i128:128-f80:128-n8:16:32:64-S128"
target triple = "x86_64-pc-linux-gnu"

%struct._xmpp_element_t = type { ptr, ptr, ptr, ptr, ptr, ptr, i32, i32, i8 }

; Function Attrs: null_pointer_is_valid sspstrong uwtable
define hidden ptr @xmpp_element_to_string(ptr noundef %0, ptr noundef %1, ptr noundef %2) #0 {
  %4 = alloca ptr, align 8
  %5 = alloca ptr, align 8
  %6 = alloca ptr, align 8
  %7 = alloca ptr, align 8
  store ptr %0, ptr %4, align 8
  store ptr %1, ptr %5, align 8
  store ptr %2, ptr %6, align 8
  call void @llvm.lifetime.start.p0(i64 8, ptr %7) #8
  store ptr null, ptr %7, align 8
  %8 = load ptr, ptr %5, align 8
  %9 = load ptr, ptr %6, align 8
  %10 = getelementptr inbounds nuw %struct._xmpp_element_t, ptr %9, i32 0, i32 6
  %11 = load i32, ptr %10, align 8
  %12 = load ptr, ptr %6, align 8
  %13 = getelementptr inbounds nuw %struct._xmpp_element_t, ptr %12, i32 0, i32 7
  %14 = load i32, ptr %13, align 4
  %15 = add i32 %11, %14
  %16 = sub i32 %15, 1
  %17 = call zeroext i1 @tvb_offset_exists(ptr noundef %8, i32 noundef %16)
  br i1 %17, label %18, label %28

18:                                               ; preds = %3
  %19 = load ptr, ptr %4, align 8
  %20 = load ptr, ptr %5, align 8
  %21 = load ptr, ptr %6, align 8
  %22 = getelementptr inbounds nuw %struct._xmpp_element_t, ptr %21, i32 0, i32 6
  %23 = load i32, ptr %22, align 8
  %24 = load ptr, ptr %6, align 8
  %25 = getelementptr inbounds nuw %struct._xmpp_element_t, ptr %24, i32 0, i32 7
  %26 = load i32, ptr %25, align 4
  %27 = call ptr @tvb_get_string_enc(ptr noundef %19, ptr noundef %20, i32 noundef %23, i32 noundef %26, i32 noundef 0)
  store ptr %27, ptr %7, align 8
  br label %28

28:                                               ; preds = %18, %3
  %29 = load ptr, ptr %7, align 8
  call void @llvm.lifetime.end.p0(i64 8, ptr %7) #8
  ret ptr %29
}