; Function Attrs: null_pointer_is_valid sspstrong uwtable
define hidden ptr @xmpp_element_to_string(ptr noundef %0, ptr noundef %1, ptr noundef readonly captures(none) %2) local_unnamed_addr #0 {
  %4 = getelementptr inbounds nuw i8, ptr %2, i64 48
  %5 = load i32, ptr %4, align 8
  %6 = getelementptr inbounds nuw i8, ptr %2, i64 52
  %7 = load i32, ptr %6, align 4
  %8 = add i32 %5, -1
  %9 = add i32 %8, %7
  %10 = tail call zeroext i1 @tvb_offset_exists(ptr noundef %1, i32 noundef %9)
  br i1 %10, label %11, label %15

11:                                               ; preds = %3
  %12 = load i32, ptr %4, align 8
  %13 = load i32, ptr %6, align 4
  %14 = tail call ptr @tvb_get_string_enc(ptr noundef %0, ptr noundef %1, i32 noundef %12, i32 noundef %13, i32 noundef 0)
  br label %15

15:                                               ; preds = %11, %3
  %.0 = phi ptr [ %14, %11 ], [ null, %3 ]
  ret ptr %.0
}